target datalayout = "e-m:e-p270:32:32-p271:32:32-p272:64:64-i64:64-i128:128-f80:128-n8:16:32:64-S128"
target triple = "x86_64-pc-linux-gnu"

%struct.anon = type { i32, [0 x i8] }
%struct.varattrib_1b = type { i8, [0 x i8] }
%struct.FunctionCallInfoBaseData = type { ptr, ptr, ptr, i32, i8, i16, [0 x %struct.NullableDatum] }
%struct.NullableDatum = type { i64, i8 }

; Function Attrs: inlinehint nounwind uwtable
define internal i64 @BoolGetDatum(i1 noundef zeroext %0) #0 {
  %2 = alloca i8, align 1
  %3 = zext i1 %0 to i8
  store i8 %3, ptr %2, align 1
  %4 = load i8, ptr %2, align 1, !range !9, !noundef !10
  %5 = trunc i8 %4 to i1
  %6 = select i1 %5, i32 1, i32 0
  %7 = sext i32 %6 to i64
  ret i64 %7
}

; Function Attrs: inlinehint nounwind uwtable
define internal ptr @DatumGetPointer(i64 noundef %0) #0 {
  %2 = alloca i64, align 8
  store i64 %0, ptr %2, align 8
  %3 = load i64, ptr %2, align 8
  %4 = inttoptr i64 %3 to ptr
  ret ptr %4
}

; Function Attrs: nounwind uwtable
define dso_local i64 @byteaeq(ptr noundef %0) #1 {
  %2 = alloca ptr, align 8
  %3 = alloca i64, align 8
  %4 = alloca i64, align 8
  %5 = alloca i8, align 1
  %6 = alloca i64, align 8
  %7 = alloca i64, align 8
  %8 = alloca ptr, align 8
  %9 = alloca ptr, align 8
  store ptr %0, ptr %2, align 8
  call void @llvm.lifetime.start.p0(i64 8, ptr %3) #13
  %10 = load ptr, ptr %2, align 8
  %11 = getelementptr inbounds nuw %struct.FunctionCallInfoBaseData, ptr %10, i32 0, i32 6
  %12 = getelementptr inbounds [0 x %struct.NullableDatum], ptr %11, i64 0, i64 0
  %13 = getelementptr inbounds nuw %struct.NullableDatum, ptr %12, i32 0, i32 0
  %14 = load i64, ptr %13, align 8
  store i64 %14, ptr %3, align 8
  call void @llvm.lifetime.start.p0(i64 8, ptr %4) #13
  %15 = load ptr, ptr %2, align 8
  %16 = getelementptr inbounds nuw %struct.FunctionCallInfoBaseData, ptr %15, i32 0, i32 6
  %17 = getelementptr inbounds [0 x %struct.NullableDatum], ptr %16, i64 0, i64 1
  %18 = getelementptr inbounds nuw %struct.NullableDatum, ptr %17, i32 0, i32 0
  %19 = load i64, ptr %18, align 8
  store i64 %19, ptr %4, align 8
  call void @llvm.lifetime.start.p0(i64 1, ptr %5) #13
  call void @llvm.lifetime.start.p0(i64 8, ptr %6) #13
  call void @llvm.lifetime.start.p0(i64 8, ptr %7) #13
  %20 = load i64, ptr %3, align 8
  %21 = call i64 @toast_raw_datum_size(i64 noundef %20)
  store i64 %21, ptr %6, align 8
  %22 = load i64, ptr %4, align 8
  %23 = call i64 @toast_raw_datum_size(i64 noundef %22)
  store i64 %23, ptr %7, align 8
  %24 = load i64, ptr %6, align 8
  %25 = load i64, ptr %7, align 8
  %26 = icmp ne i64 %24, %25
  br i1 %26, label %27, label %28

27:                                               ; preds = %1
  store i8 0, ptr %5, align 1
  br label %100

28:                                               ; preds = %1
  call void @llvm.lifetime.start.p0(i64 8, ptr %8) #13
  %29 = load i64, ptr %3, align 8
  %30 = call ptr @DatumGetPointer(i64 noundef %29)
  %31 = call ptr @pg_detoast_datum_packed(ptr noundef %30)
  store ptr %31, ptr %8, align 8
  call void @llvm.lifetime.start.p0(i64 8, ptr %9) #13
  %32 = load i64, ptr %4, align 8
  %33 = call ptr @DatumGetPointer(i64 noundef %32)
  %34 = call ptr @pg_detoast_datum_packed(ptr noundef %33)
  store ptr %34, ptr %9, align 8
  %35 = load ptr, ptr %8, align 8
  %36 = getelementptr inbounds nuw %struct.varattrib_1b, ptr %35, i32 0, i32 0
  %37 = load i8, ptr %36, align 1
  %38 = zext i8 %37 to i32
  %39 = and i32 %38, 1
  %40 = icmp eq i32 %39, 1
  br i1 %40, label %41, label %45

41:                                               ; preds = %28
  %42 = load ptr, ptr %8, align 8
  %43 = getelementptr inbounds nuw %struct.varattrib_1b, ptr %42, i32 0, i32 1
  %44 = getelementptr inbounds [0 x i8], ptr %43, i64 0, i64 0
  br label %49

45:                                               ; preds = %28
  %46 = load ptr, ptr %8, align 8
  %47 = getelementptr inbounds nuw %struct.anon, ptr %46, i32 0, i32 1
  %48 = getelementptr inbounds [0 x i8], ptr %47, i64 0, i64 0
  br label %49

49:                                               ; preds = %45, %41
  %50 = phi ptr [ %44, %41 ], [ %48, %45 ]
  %51 = load ptr, ptr %9, align 8
  %52 = getelementptr inbounds nuw %struct.varattrib_1b, ptr %51, i32 0, i32 0
  %53 = load i8, ptr %52, align 1
  %54 = zext i8 %53 to i32
  %55 = and i32 %54, 1
  %56 = icmp eq i32 %55, 1
  br i1 %56, label %57, label %61

57:                                               ; preds = %49
  %58 = load ptr, ptr %9, align 8
  %59 = getelementptr inbounds nuw %struct.varattrib_1b, ptr %58, i32 0, i32 1
  %60 = getelementptr inbounds [0 x i8], ptr %59, i64 0, i64 0
  br label %65

61:                                               ; preds = %49
  %62 = load ptr, ptr %9, align 8
  %63 = getelementptr inbounds nuw %struct.anon, ptr %62, i32 0, i32 1
  %64 = getelementptr inbounds [0 x i8], ptr %63, i64 0, i64 0
  br label %65

65:                                               ; preds = %61, %57
  %66 = phi ptr [ %60, %57 ], [ %64, %61 ]
  %67 = load i64, ptr %6, align 8
  %68 = sub i64 %67, 4
  %69 = call i32 @memcmp(ptr noundef %50, ptr noundef %66, i64 noundef %68) #12
  %70 = icmp eq i32 %69, 0
  %71 = zext i1 %70 to i8
  store i8 %71, ptr %5, align 1
  br label %72

72:                                               ; preds = %65
  %73 = load ptr, ptr %8, align 8
  %74 = load ptr, ptr %2, align 8
  %75 = getelementptr inbounds nuw %struct.FunctionCallInfoBaseData, ptr %74, i32 0, i32 6
  %76 = getelementptr inbounds [0 x %struct.NullableDatum], ptr %75, i64 0, i64 0
  %77 = getelementptr inbounds nuw %struct.NullableDatum, ptr %76, i32 0, i32 0
  %78 = load i64, ptr %77, align 8
  %79 = call ptr @DatumGetPointer(i64 noundef %78)
  %80 = icmp ne ptr %73, %79
  br i1 %80, label %81, label %83

81:                                               ; preds = %72
  %82 = load ptr, ptr %8, align 8
  call void @pfree(ptr noundef %82)
  br label %83

83:                                               ; preds = %81, %72
  br label %84

84:                                               ; preds = %83
  br label %85

85:                                               ; preds = %84
  br label %86

86:                                               ; preds = %85
  %87 = load ptr, ptr %9, align 8
  %88 = load ptr, ptr %2, align 8
  %89 = getelementptr inbounds nuw %struct.FunctionCallInfoBaseData, ptr %88, i32 0, i32 6
  %90 = getelementptr inbounds [0 x %struct.NullableDatum], ptr %89, i64 0, i64 1
  %91 = getelementptr inbounds nuw %struct.NullableDatum, ptr %90, i32 0, i32 0
  %92 = load i64, ptr %91, align 8
  %93 = call ptr @DatumGetPointer(i64 noundef %92)
  %94 = icmp ne ptr %87, %93
  br i1 %94, label %95, label %97

95:                                               ; preds = %86
  %96 = load ptr, ptr %9, align 8
  call void @pfree(ptr noundef %96)
  br label %97

97:                                               ; preds = %95, %86
  br label %98

98:                                               ; preds = %97
  br label %99

99:                                               ; preds = %98
  call void @llvm.lifetime.end.p0(i64 8, ptr %9) #13
  call void @llvm.lifetime.end.p0(i64 8, ptr %8) #13
  br label %100

100:                                              ; preds = %99, %27
  %101 = load i8, ptr %5, align 1, !range !9, !noundef !10
  %102 = trunc i8 %101 to i1
  %103 = call i64 @BoolGetDatum(i1 noundef zeroext %102)
  call void @llvm.lifetime.end.p0(i64 8, ptr %7) #13
  call void @llvm.lifetime.end.p0(i64 8, ptr %6) #13
  call void @llvm.lifetime.end.p0(i64 1, ptr %5) #13
  call void @llvm.lifetime.end.p0(i64 8, ptr %4) #13
  call void @llvm.lifetime.end.p0(i64 8, ptr %3) #13
  ret i64 %103
}