; Function Attrs: nounwind uwtable
define dso_local range(i64 0, 2) i64 @byteaeq(ptr noundef readonly captures(none) %0) local_unnamed_addr #0 {
  %2 = getelementptr inbounds nuw i8, ptr %0, i64 32
  %3 = load i64, ptr %2, align 8
  %4 = getelementptr inbounds nuw i8, ptr %0, i64 48
  %5 = load i64, ptr %4, align 8
  %6 = tail call i64 @toast_raw_datum_size(i64 noundef %3) #19
  %7 = tail call i64 @toast_raw_datum_size(i64 noundef %5) #19
  %.not = icmp eq i64 %6, %7
  br i1 %.not, label %8, label %28

8:                                                ; preds = %1
  %9 = inttoptr i64 %3 to ptr
  %10 = tail call ptr @pg_detoast_datum_packed(ptr noundef %9) #19
  %11 = inttoptr i64 %5 to ptr
  %12 = tail call ptr @pg_detoast_datum_packed(ptr noundef %11) #19
  %13 = load i8, ptr %10, align 1
  %14 = and i8 %13, 1
  %.not24 = icmp eq i8 %14, 0
  %.v = select i1 %.not24, i64 4, i64 1
  %15 = getelementptr inbounds nuw i8, ptr %10, i64 %.v
  %16 = load i8, ptr %12, align 1
  %17 = and i8 %16, 1
  %.not25 = icmp eq i8 %17, 0
  %.v26 = select i1 %.not25, i64 4, i64 1
  %18 = getelementptr inbounds nuw i8, ptr %12, i64 %.v26
  %19 = add i64 %6, -4
  %bcmp = tail call i32 @bcmp(ptr nonnull %15, ptr nonnull %18, i64 %19)
  %20 = icmp eq i32 %bcmp, 0
  %21 = load i64, ptr %2, align 8
  %22 = inttoptr i64 %21 to ptr
  %.not27 = icmp eq ptr %10, %22
  br i1 %.not27, label %24, label %23

23:                                               ; preds = %8
  tail call void @pfree(ptr noundef nonnull %10) #19
  br label %24

24:                                               ; preds = %8, %23
  %25 = load i64, ptr %4, align 8
  %26 = inttoptr i64 %25 to ptr
  %.not28 = icmp eq ptr %12, %26
  br i1 %.not28, label %28, label %27

27:                                               ; preds = %24
  tail call void @pfree(ptr noundef nonnull %12) #19
  br label %28

28:                                               ; preds = %24, %27, %1
  %.0 = phi i1 [ false, %1 ], [ %20, %27 ], [ %20, %24 ]
  %29 = zext i1 %.0 to i64
  ret i64 %29
}